; Function Attrs: nounwind uwtable
define zeroext range(i8 0, 2) i8 @l_Array_anyMUnsafe_any___at_Lean_MessageData_ofLazyM___spec__1(ptr noundef %0, ptr noundef readonly captures(none) %1, i64 noundef %2, i64 noundef %3) local_unnamed_addr #0 {
  %.not52 = icmp eq i64 %2, %3
  br i1 %.not52, label %.._crit_edge_crit_edge, label %.lr.ph

.._crit_edge_crit_edge:                           ; preds = %4
  %.pre = ptrtoint ptr %0 to i64
  %.pre54 = and i64 %.pre, 1
  br label %._crit_edge

.lr.ph:                                           ; preds = %4
  %5 = getelementptr inbounds nuw i8, ptr %1, i64 24
  %6 = ptrtoint ptr %0 to i64
  %7 = and i64 %6, 1
  %.not49 = icmp eq i64 %7, 0
  br label %10

8:                                                ; preds = %lean_dec.exit28
  %9 = add i64 %.02253, 1
  %.not = icmp eq i64 %9, %3
  br i1 %.not, label %._crit_edge, label %10

10:                                               ; preds = %.lr.ph, %8
  %.02253 = phi i64 [ %2, %.lr.ph ], [ %9, %8 ]
  %11 = getelementptr inbounds nuw [0 x ptr], ptr %5, i64 0, i64 %.02253
  %12 = load ptr, ptr %11, align 8, !tbaa !9
  %13 = ptrtoint ptr %12 to i64
  %14 = and i64 %13, 1
  %.not.i37 = icmp eq i64 %14, 0
  br i1 %.not.i37, label %15, label %lean_array_uget.exit

15:                                               ; preds = %10
  %.val.i.i = load i32, ptr %12, align 4, !tbaa !4
  %16 = icmp sgt i32 %.val.i.i, 0
  br i1 %16, label %17, label %19, !prof !11

17:                                               ; preds = %15
  %18 = add nuw i32 %.val.i.i, 1
  store i32 %18, ptr %12, align 4, !tbaa !4
  br label %lean_array_uget.exit

19:                                               ; preds = %15
  %.not.i.i = icmp eq i32 %.val.i.i, 0
  br i1 %.not.i.i, label %lean_array_uget.exit, label %20

20:                                               ; preds = %19
  tail call void @lean_inc_ref_cold(ptr noundef nonnull %12) #6
  br label %lean_array_uget.exit

lean_array_uget.exit:                             ; preds = %10, %17, %19, %20
  br i1 %.not49, label %21, label %lean_inc.exit30

21:                                               ; preds = %lean_array_uget.exit
  %.val.i = load i32, ptr %0, align 4, !tbaa !4
  %22 = icmp sgt i32 %.val.i, 0
  br i1 %22, label %23, label %25, !prof !11

23:                                               ; preds = %21
  %24 = add nuw i32 %.val.i, 1
  store i32 %24, ptr %0, align 4, !tbaa !4
  br label %lean_inc.exit30

25:                                               ; preds = %21
  %.not.i38 = icmp eq i32 %.val.i, 0
  br i1 %.not.i38, label %lean_inc.exit30, label %26

26:                                               ; preds = %25
  tail call void @lean_inc_ref_cold(ptr noundef nonnull %0) #6
  br label %lean_inc.exit30

lean_inc.exit30:                                  ; preds = %26, %25, %23, %lean_array_uget.exit
  %27 = tail call ptr @l_Lean_instantiateMVarsCore(ptr noundef %0, ptr noundef %12) #6
  %28 = getelementptr inbounds nuw i8, ptr %27, i64 8
  %29 = load ptr, ptr %28, align 8, !tbaa !9
  %30 = ptrtoint ptr %29 to i64
  %31 = and i64 %30, 1
  %.not50 = icmp eq i64 %31, 0
  br i1 %.not50, label %32, label %lean_inc.exit

32:                                               ; preds = %lean_inc.exit30
  %.val.i39 = load i32, ptr %29, align 4, !tbaa !4
  %33 = icmp sgt i32 %.val.i39, 0
  br i1 %33, label %34, label %36, !prof !11

34:                                               ; preds = %32
  %35 = add nuw i32 %.val.i39, 1
  store i32 %35, ptr %29, align 4, !tbaa !4
  br label %lean_inc.exit

36:                                               ; preds = %32
  %.not.i40 = icmp eq i32 %.val.i39, 0
  br i1 %.not.i40, label %lean_inc.exit, label %37

37:                                               ; preds = %36
  tail call void @lean_inc_ref_cold(ptr noundef nonnull %29) #6
  br label %lean_inc.exit

lean_inc.exit:                                    ; preds = %37, %36, %34, %lean_inc.exit30
  %38 = ptrtoint ptr %27 to i64
  %39 = and i64 %38, 1
  %.not51 = icmp eq i64 %39, 0
  br i1 %.not51, label %40, label %lean_dec.exit29

40:                                               ; preds = %lean_inc.exit
  %41 = load i32, ptr %27, align 4, !tbaa !4
  %42 = icmp sgt i32 %41, 1
  br i1 %42, label %43, label %45, !prof !11

43:                                               ; preds = %40
  %44 = add nsw i32 %41, -1
  store i32 %44, ptr %27, align 4, !tbaa !4
  br label %lean_dec.exit29

45:                                               ; preds = %40
  %.not.i = icmp eq i32 %41, 0
  br i1 %.not.i, label %lean_dec.exit29, label %46

46:                                               ; preds = %45
  tail call void @lean_dec_ref_cold(ptr noundef nonnull %27) #6
  br label %lean_dec.exit29

lean_dec.exit29:                                  ; preds = %46, %45, %43, %lean_inc.exit
  %47 = tail call zeroext i8 @l_Lean_Expr_hasSyntheticSorry(ptr noundef %29) #6
  br i1 %.not50, label %48, label %lean_dec.exit28

48:                                               ; preds = %lean_dec.exit29
  %49 = load i32, ptr %29, align 4, !tbaa !4
  %50 = icmp sgt i32 %49, 1
  br i1 %50, label %51, label %53, !prof !11

51:                                               ; preds = %48
  %52 = add nsw i32 %49, -1
  store i32 %52, ptr %29, align 4, !tbaa !4
  br label %lean_dec.exit28

53:                                               ; preds = %48
  %.not.i31 = icmp eq i32 %49, 0
  br i1 %.not.i31, label %lean_dec.exit28, label %54

54:                                               ; preds = %53
  tail call void @lean_dec_ref_cold(ptr noundef nonnull %29) #6
  br label %lean_dec.exit28

lean_dec.exit28:                                  ; preds = %54, %53, %51, %lean_dec.exit29
  %55 = icmp eq i8 %47, 0
  br i1 %55, label %8, label %56

56:                                               ; preds = %lean_dec.exit28
  br i1 %.not49, label %57, label %71

57:                                               ; preds = %56
  %58 = load i32, ptr %0, align 4, !tbaa !4
  %59 = icmp sgt i32 %58, 1
  br i1 %59, label %60, label %62, !prof !11

60:                                               ; preds = %57
  %61 = add nsw i32 %58, -1
  store i32 %61, ptr %0, align 4, !tbaa !4
  br label %71

62:                                               ; preds = %57
  %.not.i33 = icmp eq i32 %58, 0
  br i1 %.not.i33, label %71, label %63

63:                                               ; preds = %62
  tail call void @lean_dec_ref_cold(ptr noundef nonnull %0) #6
  br label %71

._crit_edge:                                      ; preds = %8, %.._crit_edge_crit_edge
  %.pre-phi55 = phi i64 [ %.pre54, %.._crit_edge_crit_edge ], [ %7, %8 ]
  %.not48 = icmp eq i64 %.pre-phi55, 0
  br i1 %.not48, label %64, label %71

64:                                               ; preds = %._crit_edge
  %65 = load i32, ptr %0, align 4, !tbaa !4
  %66 = icmp sgt i32 %65, 1
  br i1 %66, label %67, label %69, !prof !11

67:                                               ; preds = %64
  %68 = add nsw i32 %65, -1
  store i32 %68, ptr %0, align 4, !tbaa !4
  br label %71

69:                                               ; preds = %64
  %.not.i35 = icmp eq i32 %65, 0
  br i1 %.not.i35, label %71, label %70

70:                                               ; preds = %69
  tail call void @lean_dec_ref_cold(ptr noundef nonnull %0) #6
  br label %71

71:                                               ; preds = %63, %62, %60, %56, %70, %69, %67, %._crit_edge
  %.2.ph = phi i8 [ 0, %._crit_edge ], [ 0, %67 ], [ 0, %69 ], [ 0, %70 ], [ 1, %56 ], [ 1, %60 ], [ 1, %62 ], [ 1, %63 ]
  ret i8 %.2.ph
}